; Function Attrs: mustprogress nofree nounwind memory(readwrite, inaccessiblemem: none) uwtable
define noundef zeroext i1 @_ZNK7rocksdb11MaxOperator11FullMergeV2ERKNS_13MergeOperator19MergeOperationInputEPNS1_20MergeOperationOutputE(ptr nonnull readnone align 8 captures(none) %0, ptr noundef nonnull readonly align 8 captures(none) dereferenceable(32) %1, ptr noundef readonly captures(none) %2) unnamed_addr #0 align 2 {
  %4 = getelementptr inbounds nuw i8, ptr %2, i64 8
  %5 = load ptr, ptr %4, align 8, !tbaa !4
  %6 = getelementptr inbounds nuw i8, ptr %1, i64 8
  %7 = load ptr, ptr %6, align 8, !tbaa !12
  %.not = icmp eq ptr %7, null
  br i1 %.not, label %12, label %8

8:                                                ; preds = %3
  %9 = load ptr, ptr %7, align 8, !tbaa !16
  %10 = getelementptr inbounds nuw i8, ptr %7, i64 8
  %11 = load i64, ptr %10, align 8, !tbaa !20
  br label %.sink.split

12:                                               ; preds = %3
  %13 = load ptr, ptr %5, align 8, !tbaa !16
  %14 = icmp eq ptr %13, null
  br i1 %14, label %.sink.split, label %15

.sink.split:                                      ; preds = %12, %8
  %.str.sink = phi ptr [ %9, %8 ], [ @.str, %12 ]
  %.sink = phi i64 [ %11, %8 ], [ 0, %12 ]
  store ptr %.str.sink, ptr %5, align 8, !tbaa !21
  %.sroa.4.0..sroa_idx = getelementptr inbounds nuw i8, ptr %5, i64 8
  store i64 %.sink, ptr %.sroa.4.0..sroa_idx, align 8, !tbaa !22
  br label %15

15:                                               ; preds = %.sink.split, %12
  %16 = getelementptr inbounds nuw i8, ptr %1, i64 16
  %17 = load ptr, ptr %16, align 8, !tbaa !23
  %18 = load ptr, ptr %17, align 8, !tbaa !24
  %19 = getelementptr inbounds nuw i8, ptr %17, i64 8
  %20 = load ptr, ptr %19, align 8, !tbaa !24
  %.not2021 = icmp eq ptr %18, %20
  br i1 %.not2021, label %._crit_edge, label %.lr.ph

.lr.ph:                                           ; preds = %15
  %21 = getelementptr inbounds nuw i8, ptr %5, i64 8
  br label %22

._crit_edge:                                      ; preds = %33, %15
  ret i1 true

22:                                               ; preds = %.lr.ph, %33
  %.sroa.014.022 = phi ptr [ %18, %.lr.ph ], [ %34, %33 ]
  %23 = load i64, ptr %21, align 8, !tbaa !20
  %24 = getelementptr inbounds nuw i8, ptr %.sroa.014.022, i64 8
  %25 = load i64, ptr %24, align 8, !tbaa !20
  %..i = tail call i64 @llvm.umin.i64(i64 %23, i64 %25)
  %26 = load ptr, ptr %5, align 8, !tbaa !16
  %27 = load ptr, ptr %.sroa.014.022, align 8, !tbaa !16
  %28 = tail call i32 @memcmp(ptr noundef %26, ptr noundef %27, i64 noundef %..i) #15
  %.not.i = icmp eq i32 %28, 0
  %29 = icmp ult i64 %23, %25
  %30 = icmp slt i32 %28, 0
  %31 = select i1 %.not.i, i1 %29, i1 %30
  br i1 %31, label %32, label %33

32:                                               ; preds = %22
  tail call void @llvm.memcpy.p0.p0.i64(ptr noundef nonnull align 8 dereferenceable(16) %5, ptr noundef nonnull align 8 dereferenceable(16) %.sroa.014.022, i64 16, i1 false), !tbaa.struct !25
  br label %33

33:                                               ; preds = %32, %22
  %34 = getelementptr inbounds nuw i8, ptr %.sroa.014.022, i64 16
  %.not20 = icmp eq ptr %34, %20
  br i1 %.not20, label %._crit_edge, label %22
}